; Function Attrs: mustprogress nofree norecurse nosync nounwind willreturn memory(argmem: write) uwtable
define internal noundef zeroext i1 @_ZNSt17_Function_handlerIFSt10unique_ptrIN8facebook5velox4exec14WindowFunctionESt14default_deleteIS4_EERKSt6vectorINS3_17WindowFunctionArgESaIS9_EERKSt10shared_ptrIKNS2_4TypeEEbPNS2_6memory10MemoryPoolEPNS2_19HashStringAllocatorERKNS2_4core11QueryConfigEEZNS2_6window9prestosql25registerFirstLastInternalILNSV_12_GLOBAL__N_19ValueTypeE1EEEvRKNSt7__cxx1112basic_stringIcSt11char_traitsIcESaIcEEEEUlSD_SJ_bSM_SO_SS_E_E10_M_managerERSt9_Any_dataRKS19_St18_Manager_operation(ptr nocapture noundef nonnull writeonly align 8 dereferenceable(16) %__dest, ptr noundef nonnull align 8 dereferenceable(16) %__source, i32 noundef %__op) #12 align 2 personality ptr @__gxx_personality_v0 {
entry:
  switch i32 %__op, label %sw.epilog [
    i32 0, label %sw.epilog.sink.split
    i32 1, label %sw.bb1
  ]

sw.bb1:                                           ; preds = %entry
  br label %sw.epilog.sink.split

sw.epilog.sink.split:                             ; preds = %entry, %sw.bb1
  %__source.sink = phi ptr [ %__source, %sw.bb1 ], [ @_ZTIZN8facebook5velox6window9prestosql25registerFirstLastInternalILNS2_12_GLOBAL__N_19ValueTypeE1EEEvRKNSt7__cxx1112basic_stringIcSt11char_traitsIcESaIcEEEEUlRKSt6vectorINS0_4exec17WindowFunctionArgESaISG_EERKSt10shared_ptrIKNS0_4TypeEEbPNS0_6memory10MemoryPoolEPNS0_19HashStringAllocatorERKNS0_4core11QueryConfigEE_, %entry ]
  store ptr %__source.sink, ptr %__dest, align 8
  br label %sw.epilog

sw.epilog:                                        ; preds = %sw.epilog.sink.split, %entry
  ret i1 false
}